target datalayout = "e-m:e-p270:32:32-p271:32:32-p272:64:64-i64:64-i128:128-f80:128-n8:16:32:64-S128"
target triple = "x86_64-pc-linux-gnu"

%struct.except_id_t = type { i64, i64 }
%struct.except_stacknode = type { ptr, i32, %union.anon }
%union.anon = type { ptr }
%struct.except_catch = type { ptr, i64, %struct.except_t, [1 x %struct.__jmp_buf_tag] }
%struct.except_t = type { %struct.except_id_t, ptr, ptr }
%struct.__jmp_buf_tag = type { [8 x i64], i32, %struct.__sigset_t }
%struct.__sigset_t = type { [16 x i64] }

@call_with_catch_all.catch_spec = internal constant [1 x %struct.except_id_t] [%struct.except_id_t { i64 1, i64 0 }], align 16

; Function Attrs: nounwind uwtable
define internal void @call_with_catch_all(ptr noundef %0, ptr noundef %1, ptr noundef %2, ptr noundef %3) #0 {
  %5 = alloca ptr, align 8
  %6 = alloca ptr, align 8
  %7 = alloca ptr, align 8
  %8 = alloca ptr, align 8
  %9 = alloca ptr, align 8
  %10 = alloca i32, align 4
  %11 = alloca %struct.except_stacknode, align 8
  %12 = alloca %struct.except_catch, align 8
  store ptr %0, ptr %5, align 8
  store ptr %1, ptr %6, align 8
  store ptr %2, ptr %7, align 8
  store ptr %3, ptr %8, align 8
  %13 = load ptr, ptr %5, align 8
  %14 = icmp ne ptr %13, null
  br i1 %14, label %15, label %69

15:                                               ; preds = %4
  store volatile i32 0, ptr %10, align 4
  call void @except_setup_try(ptr noundef %11, ptr noundef %12, ptr noundef @call_with_catch_all.catch_spec, i64 noundef 1)
  %16 = getelementptr inbounds %struct.except_catch, ptr %12, i32 0, i32 3
  %17 = getelementptr inbounds [1 x %struct.__jmp_buf_tag], ptr %16, i64 0, i64 0
  %18 = call i32 @_setjmp(ptr noundef %17) #11
  %19 = icmp ne i32 %18, 0
  br i1 %19, label %20, label %22

20:                                               ; preds = %15
  %21 = getelementptr inbounds %struct.except_catch, ptr %12, i32 0, i32 2
  store volatile ptr %21, ptr %9, align 8
  br label %23

22:                                               ; preds = %15
  store volatile ptr null, ptr %9, align 8
  br label %23

23:                                               ; preds = %22, %20
  %24 = load volatile i32, ptr %10, align 4
  %25 = and i32 %24, 1
  %26 = icmp ne i32 %25, 0
  br i1 %26, label %27, label %30

27:                                               ; preds = %23
  %28 = load volatile i32, ptr %10, align 4
  %29 = or i32 %28, 2
  store volatile i32 %29, ptr %10, align 4
  br label %30

30:                                               ; preds = %27, %23
  %31 = load volatile i32, ptr %10, align 4
  %32 = and i32 %31, -2
  store volatile i32 %32, ptr %10, align 4
  %33 = load volatile i32, ptr %10, align 4
  %34 = icmp eq i32 %33, 0
  br i1 %34, label %35, label %44

35:                                               ; preds = %30
  %36 = load volatile ptr, ptr %9, align 8
  %37 = icmp eq ptr %36, null
  br i1 %37, label %38, label %44

38:                                               ; preds = %35
  %39 = load ptr, ptr %5, align 8
  %40 = load ptr, ptr %6, align 8
  %41 = load ptr, ptr %7, align 8
  %42 = load ptr, ptr %8, align 8
  %43 = call i32 @call_dissector_only(ptr noundef %39, ptr noundef %40, ptr noundef %41, ptr noundef %42, ptr noundef null)
  br label %44

44:                                               ; preds = %38, %35, %30
  %45 = load volatile i32, ptr %10, align 4
  %46 = icmp eq i32 %45, 0
  br i1 %46, label %47, label %55

47:                                               ; preds = %44
  %48 = load volatile ptr, ptr %9, align 8
  %49 = icmp ne ptr %48, null
  br i1 %49, label %50, label %55

50:                                               ; preds = %47
  %51 = load volatile i32, ptr %10, align 4
  %52 = or i32 %51, 1
  store volatile i32 %52, ptr %10, align 4
  %53 = icmp ne i32 %52, 0
  br i1 %53, label %54, label %55

54:                                               ; preds = %50
  br label %55

55:                                               ; preds = %54, %50, %47, %44
  %56 = load volatile i32, ptr %10, align 4
  %57 = and i32 %56, 1
  %58 = icmp ne i32 %57, 0
  br i1 %58, label %64, label %59

59:                                               ; preds = %55
  %60 = load volatile ptr, ptr %9, align 8
  %61 = icmp ne ptr %60, null
  br i1 %61, label %62, label %64

62:                                               ; preds = %59
  %63 = load volatile ptr, ptr %9, align 8
  call void @except_rethrow(ptr noundef %63) #12
  unreachable

64:                                               ; preds = %59, %55
  %65 = getelementptr inbounds %struct.except_catch, ptr %12, i32 0, i32 2
  %66 = getelementptr inbounds %struct.except_t, ptr %65, i32 0, i32 2
  %67 = load volatile ptr, ptr %66, align 8
  call void @except_free(ptr noundef %67)
  %68 = call ptr @except_pop()
  br label %69

69:                                               ; preds = %64, %4
  ret void
}